Certificate:
    Data:
        Version: 3 (0x2)
        Serial Number: 15396980257768104321 (0xd5ad0ff7bdf86181)
    Signature Algorithm: shaWithRSAEncryption
        Issuer: C=PL, L=Krakow, O=AGH, CN=SSL-CA
        Validity
            Not Before: May 23 09:53:01 2018 GMT
            Not After : May 22 09:53:01 2020 GMT
        Subject: C=PL, L=Cracow, O=AGH, CN=client.com
        Subject Public Key Info:
            Public Key Algorithm: rsaEncryption
                Public-Key: (2048 bit)
                Modulus:
                    00:b3:9c:2b:32:fd:e3:24:de:eb:ee:d7:b5:10:9c:
                    32:76:67:5a:12:78:ae:34:6e:e9:59:03:f0:89:0e:
                    8f:09:52:5d:9d:62:44:a6:b3:d5:fe:35:fb:28:24:
                    13:ac:af:ef:0d:bd:ae:53:54:44:19:9b:f1:32:ad:
                    89:66:60:7d:e7:55:40:82:8c:3c:11:f7:29:ec:0b:
                    42:1b:3f:f7:e6:36:74:a4:c4:3f:dd:33:e2:c5:f3:
                    bc:23:74:9c:54:96:8b:c6:c3:5c:3c:96:f8:3b:96:
                    3f:2c:26:17:cb:c1:77:5e:e3:ac:9c:e0:19:44:65:
                    34:d9:bd:62:44:84:11:fb:e2:e1:a6:ae:c7:f4:1d:
                    04:6f:10:3c:37:30:29:02:e5:3b:a6:f9:b5:48:6a:
                    89:02:c1:43:e1:ba:eb:10:da:1a:c0:7b:d9:a0:1d:
                    ac:4c:2d:de:46:2f:af:ed:1c:f3:21:1a:a6:3f:22:
                    b6:3c:53:b9:16:fa:42:30:48:e6:f3:4d:1a:87:03:
                    0d:8e:f9:03:16:5c:8a:24:48:38:dd:93:ec:4d:58:
                    44:43:57:c3:ba:40:95:96:d3:ff:ca:05:f3:c2:6f:
                    88:f1:bf:f8:2d:ec:e8:d9:2b:a1:d7:42:ce:61:c6:
                    3a:91:64:01:65:b6:a3:d0:26:00:01:19:cb:c8:29:
                    34:2f
                Exponent: 65537 (0x10001)
        X509v3 extensions:
            X509v3 Basic Constraints: 
                CA:FALSE
            Netscape Cert Type: 
                SSL Client
            X509v3 Key Usage: 
                Digital Signature
            X509v3 Extended Key Usage: 
                TLS Web Client Authentication
            X509v3 Subject Key Identifier: 
                89:3B:62:CD:DB:E7:D0:ED:28:7A:94:F0:A7:18:47:9C:E1:36:B0:DD
            X509v3 Authority Key Identifier: 
                keyid:8B:15:05:E1:A9:9C:D8:33:2D:3E:37:C0:98:80:23:23:CE:D8:77:A8

            X509v3 Subject Alternative Name: 
                email:client@client.com
    Signature Algorithm: shaWithRSAEncryption
         9b:b6:3e:c2:e2:bf:b2:55:56:62:5c:5b:ff:06:d9:37:ae:ba:
         bd:d1:c6:ce:79:82:bd:c3:00:b2:2a:b0:54:26:a0:cb:2a:33:
         9b:be:c4:77:f6:3a:02:64:59:b9:2b:9c:71:2b:c5:ae:64:f6:
         66:02:7c:80:84:9b:24:68:95:a1:4e:37:30:c2:b7:e0:55:bb:
         80:67:13:7a:c1:cf:84:26:88:b5:be:f3:ca:99:46:d9:07:63:
         8b:4a:2d:75:04:ba:9d:eb:2b:59:0d:f2:25:01:2e:29:a2:fa:
         49:90:fa:85:7d:93:61:99:55:4b:b6:f2:87:25:ea:dd:f1:0d:
         fe:46:fa:01:de:92:5c:ed:44:3f:23:2b:e5:c8:8a:4e:08:59:
         c6:b6:42:47:7b:dc:16:ef:05:93:55:49:0c:c2:3b:9b:18:6e:
         d5:20:6b:0e:41:f9:5d:7f:f4:6a:88:20:70:d6:67:50:25:3b:
         db:99:39:32:70:18:8d:eb:1d:6e:c4:01:12:f8:6a:46:93:4a:
         40:7a:84:1d:98:97:00:ee:ce:01:b4:7f:a1:98:50:b6:6e:69:
         6f:f7:f0:63:c0:99:da:be:3f:f6:13:39:b3:d2:98:42:e2:08:
         49:c1:1c:15:3d:c9:51:e6:e8:e0:e0:88:26:e1:11:94:f5:d4:
         2e:45:13:a0
-----BEGIN CERTIFICATE-----
MIIDmzCCAoegAwIBAgIJANWtD/e9+GGBMAkGBSsOAwIPBQAwPTELMAkGA1UEBhMC
UEwxDzANBgNVBAcMBktyYWtvdzEMMAoGA1UECgwDQUdIMQ8wDQYDVQQDDAZTU0wt
Q0EwHhcNMTgwNTIzMDk1MzAxWhcNMjAwNTIyMDk1MzAxWjBBMQswCQYDVQQGEwJQ
TDEPMA0GA1UEBwwGQ3JhY293MQwwCgYDVQQKDANBR0gxEzARBgNVBAMMCmNsaWVu
dC5jb20wggEiMA0GCSqGSIb3DQEBAQUAA4IBDwAwggEKAoIBAQCznCsy/eMk3uvu
17UQnDJ2Z1oSeK40bulZA/CJDo8JUl2dYkSms9X+NfsoJBOsr+8Nva5TVEQZm/Ey
rYlmYH3nVUCCjDwR9ynsC0IbP/fmNnSkxD/dM+LF87wjdJxUlovGw1w8lvg7lj8s
JhfLwXde46yc4BlEZTTZvWJEhBH74uGmrsf0HQRvEDw3MCkC5Tum+bVIaokCwUPh
uusQ2hrAe9mgHaxMLd5GL6/tHPMhGqY/IrY8U7kW+kIwSObzTRqHAw2O+QMWXIok
SDjdk+xNWERDV8O6QJWW0//KBfPCb4jxv/gt7OjZK6HXQs5hxjqRZAFltqPQJgAB
GcvIKTQvAgMBAAGjgaEwgZ4wCQYDVR0TBAIwADARBglghkgBhvhCAQEEBAMCB4Aw
CwYDVR0PBAQDAgeAMBMGA1UdJQQMMAoGCCsGAQUFBwMCMB0GA1UdDgQWBBSJO2LN
2+fQ7Sh6lPCnGEec4Taw3TAfBgNVHSMEGDAWgBSLFQXhqZzYMy0+N8CYgCMjzth3
qDAcBgNVHREEFTATgRFjbGllbnRAY2xpZW50LmNvbTAJBgUrDgMCDwUAA4IBAQCb
tj7C4r+yVVZiXFv/Btk3rrq90cbOeYK9wwCyKrBUJqDLKjObvsR39joCZFm5K5xx
K8WuZPZmAnyAhJskaJWhTjcwwrfgVbuAZxN6wc+EJoi1vvPKmUbZB2OLSi11BLqd
6ytZDfIlAS4povpJkPqFfZNhmVVLtvKHJerd8Q3+RvoB3pJc7UQ/IyvlyIpOCFnG
tkJHe9wW7wWTVUkMwjubGG7VIGsOQfldf/RqiCBw1mdQJTvbmTkycBiN6x1uxAES
+GpGk0pAeoQdmJcA7s4BtH+hmFC2bmlv9/BjwJnavj/2Ezmz0phC4ghJwRwVPclR
5ujg4Igm4RGU9dQuRROg
-----END CERTIFICATE-----
