Certificate:
    Data:
        Version: 3 (0x2)
        Serial Number: 15396980257768104319 (0xd5ad0ff7bdf8617f)
    Signature Algorithm: shaWithRSAEncryption
        Issuer: C=PL, L=Krakow, O=AGH, CN=SSL-CA
        Validity
            Not Before: May 23 08:37:08 2018 GMT
            Not After : May 20 08:37:08 2028 GMT
        Subject: C=PL, L=Krakow, O=AGH, CN=SSL-CA
        Subject Public Key Info:
            Public Key Algorithm: rsaEncryption
                Public-Key: (2048 bit)
                Modulus:
                    00:b9:bc:b6:19:bb:06:b1:da:35:3b:df:29:4b:d3:
                    96:83:41:74:b9:44:55:b7:d4:bf:cf:e8:24:0d:9b:
                    49:90:6f:8c:1a:b8:f2:ac:e2:57:51:f5:d4:1b:58:
                    be:dd:c5:6b:c4:3e:de:2e:8e:4d:03:5f:01:a0:ec:
                    78:3b:47:c6:41:d9:d7:21:8a:e8:62:19:b2:fb:28:
                    c7:75:04:30:e2:d7:22:cc:68:70:b6:ec:2f:48:17:
                    35:63:3b:56:ae:28:e1:f7:f5:4b:d0:7d:d6:5d:2d:
                    ae:5b:dd:ba:34:7e:84:c3:1c:84:16:4c:56:1a:07:
                    02:2f:8a:17:60:af:73:98:29:76:68:d3:3c:4b:ce:
                    39:3e:f4:44:da:44:e5:90:64:f9:17:d2:aa:a3:fe:
                    a4:e7:5c:eb:dd:b5:ab:ea:dd:a9:5b:c0:33:12:45:
                    1b:e0:fa:55:b2:e8:c9:bf:32:1a:70:3b:7e:c8:b0:
                    fa:67:20:9f:e8:f6:05:5e:95:c5:67:d2:7d:be:31:
                    b0:bc:f2:7e:40:10:20:2f:f4:c3:cb:98:26:00:0b:
                    f7:65:6a:81:21:68:c9:68:8e:44:69:79:34:74:7b:
                    29:82:8e:e2:64:2f:7f:c6:18:4b:87:9e:7f:a0:1f:
                    ce:5d:3b:41:e8:2f:3f:c4:e2:4e:82:b2:32:06:7f:
                    98:dd
                Exponent: 65537 (0x10001)
        X509v3 extensions:
            X509v3 Basic Constraints: 
                CA:TRUE
            Netscape Cert Type: 
                SSL CA
            X509v3 Key Usage: 
                Certificate Sign, CRL Sign
            X509v3 Subject Key Identifier: 
                8B:15:05:E1:A9:9C:D8:33:2D:3E:37:C0:98:80:23:23:CE:D8:77:A8
            X509v3 Authority Key Identifier: 
                keyid:8B:15:05:E1:A9:9C:D8:33:2D:3E:37:C0:98:80:23:23:CE:D8:77:A8
                DirName:/C=PL/L=Krakow/O=AGH/CN=SSL-CA
                serial:D5:AD:0F:F7:BD:F8:61:7F

            X509v3 Subject Alternative Name: 
                email:agh@agh.pl
    Signature Algorithm: shaWithRSAEncryption
         ae:77:f5:37:35:e9:dd:b5:69:93:98:c6:ec:bf:b2:a8:4c:c9:
         d3:64:8b:64:f1:88:25:39:ff:ec:e2:0c:70:24:38:fb:65:da:
         3a:08:86:c6:4b:0a:22:4a:16:3f:83:b3:7c:22:ae:26:0e:7b:
         24:d0:be:43:58:68:91:bd:f5:0f:b0:3a:cf:89:62:30:6c:6f:
         52:a2:39:f5:4e:43:cc:03:69:17:df:e9:90:69:91:71:38:e8:
         04:c3:93:7e:f6:7a:7a:ee:9f:b2:fd:2f:ff:07:b8:1e:a8:f9:
         2d:c6:88:a0:de:f3:70:d4:f9:f8:dc:d2:0f:78:b9:96:e1:6c:
         db:37:1c:86:74:1a:72:dd:0d:5e:23:14:c6:96:22:0d:0e:aa:
         bb:18:3b:83:02:be:2f:b3:80:3d:6a:0f:29:2f:01:b3:9e:a0:
         b8:cd:d7:d8:32:d0:19:f1:8d:fe:92:6e:61:69:09:be:75:62:
         2e:4a:21:b3:93:05:9a:a3:0c:d2:92:f0:58:f9:42:53:57:50:
         5b:4f:b4:64:fe:2a:ab:46:ae:d7:c2:74:c7:fe:07:31:f7:70:
         e0:34:20:20:85:a6:68:3e:7b:48:e7:74:0e:b9:f1:1f:92:ee:
         89:dd:4b:9d:cf:12:99:c7:b2:a8:22:53:af:e3:56:8f:1c:1e:
         7e:57:52:99
-----BEGIN CERTIFICATE-----
MIIDzDCCArigAwIBAgIJANWtD/e9+GF/MAkGBSsOAwIPBQAwPTELMAkGA1UEBhMC
UEwxDzANBgNVBAcMBktyYWtvdzEMMAoGA1UECgwDQUdIMQ8wDQYDVQQDDAZTU0wt
Q0EwHhcNMTgwNTIzMDgzNzA4WhcNMjgwNTIwMDgzNzA4WjA9MQswCQYDVQQGEwJQ
TDEPMA0GA1UEBwwGS3Jha293MQwwCgYDVQQKDANBR0gxDzANBgNVBAMMBlNTTC1D
QTCCASIwDQYJKoZIhvcNAQEBBQADggEPADCCAQoCggEBALm8thm7BrHaNTvfKUvT
loNBdLlEVbfUv8/oJA2bSZBvjBq48qziV1H11BtYvt3Fa8Q+3i6OTQNfAaDseDtH
xkHZ1yGK6GIZsvsox3UEMOLXIsxocLbsL0gXNWM7Vq4o4ff1S9B91l0trlvdujR+
hMMchBZMVhoHAi+KF2Cvc5gpdmjTPEvOOT70RNpE5ZBk+RfSqqP+pOdc6921q+rd
qVvAMxJFG+D6VbLoyb8yGnA7fsiw+mcgn+j2BV6VxWfSfb4xsLzyfkAQIC/0w8uY
JgAL92VqgSFoyWiORGl5NHR7KYKO4mQvf8YYS4eef6Afzl07QegvP8TiToKyMgZ/
mN0CAwEAAaOB1jCB0zAMBgNVHRMEBTADAQH/MBEGCWCGSAGG+EIBAQQEAwICBDAL
BgNVHQ8EBAMCAQYwHQYDVR0OBBYEFIsVBeGpnNgzLT43wJiAIyPO2HeoMG0GA1Ud
IwRmMGSAFIsVBeGpnNgzLT43wJiAIyPO2HeooUGkPzA9MQswCQYDVQQGEwJQTDEP
MA0GA1UEBwwGS3Jha293MQwwCgYDVQQKDANBR0gxDzANBgNVBAMMBlNTTC1DQYIJ
ANWtD/e9+GF/MBUGA1UdEQQOMAyBCmFnaEBhZ2gucGwwCQYFKw4DAg8FAAOCAQEA
rnf1NzXp3bVpk5jG7L+yqEzJ02SLZPGIJTn/7OIMcCQ4+2XaOgiGxksKIkoWP4Oz
fCKuJg57JNC+Q1hokb31D7A6z4liMGxvUqI59U5DzANpF9/pkGmRcTjoBMOTfvZ6
eu6fsv0v/we4Hqj5LcaIoN7zcNT5+NzSD3i5luFs2zcchnQact0NXiMUxpYiDQ6q
uxg7gwK+L7OAPWoPKS8Bs56guM3X2DLQGfGN/pJuYWkJvnViLkohs5MFmqMM0pLw
WPlCU1dQW0+0ZP4qq0au18J0x/4HMfdw4DQgIIWmaD57SOd0DrnxH5Luid1Lnc8S
mceyqCJTr+NWjxwefldSmQ==
-----END CERTIFICATE-----
